; Function Attrs: cold mustprogress nofree norecurse nosync nounwind optsize willreturn memory(argmem: write) uwtable
define void @ff_sbrdsp_init(ptr noundef writeonly captures(none) initializes((0, 112)) %0) local_unnamed_addr #0 {
  store ptr @sbr_sum64x5_c, ptr %0, align 8, !tbaa !4
  %2 = getelementptr inbounds nuw i8, ptr %0, i64 8
  store ptr @sbr_sum_square_c, ptr %2, align 8, !tbaa !9
  %3 = getelementptr inbounds nuw i8, ptr %0, i64 16
  store ptr @sbr_neg_odd_64_c, ptr %3, align 8, !tbaa !10
  %4 = getelementptr inbounds nuw i8, ptr %0, i64 24
  store ptr @sbr_qmf_pre_shuffle_c, ptr %4, align 8, !tbaa !11
  %5 = getelementptr inbounds nuw i8, ptr %0, i64 32
  store ptr @sbr_qmf_post_shuffle_c, ptr %5, align 8, !tbaa !12
  %6 = getelementptr inbounds nuw i8, ptr %0, i64 40
  store ptr @sbr_qmf_deint_neg_c, ptr %6, align 8, !tbaa !13
  %7 = getelementptr inbounds nuw i8, ptr %0, i64 48
  store ptr @sbr_qmf_deint_bfly_c, ptr %7, align 8, !tbaa !14
  %8 = getelementptr inbounds nuw i8, ptr %0, i64 56
  store ptr @sbr_autocorrelate_c, ptr %8, align 8, !tbaa !15
  %9 = getelementptr inbounds nuw i8, ptr %0, i64 64
  store ptr @sbr_hf_gen_c, ptr %9, align 8, !tbaa !16
  %10 = getelementptr inbounds nuw i8, ptr %0, i64 72
  store ptr @sbr_hf_g_filt_c, ptr %10, align 8, !tbaa !17
  %11 = getelementptr inbounds nuw i8, ptr %0, i64 80
  store ptr @sbr_hf_apply_noise_0, ptr %11, align 8, !tbaa !18
  %12 = getelementptr inbounds nuw i8, ptr %0, i64 88
  store ptr @sbr_hf_apply_noise_1, ptr %12, align 8, !tbaa !18
  %13 = getelementptr inbounds nuw i8, ptr %0, i64 96
  store ptr @sbr_hf_apply_noise_2, ptr %13, align 8, !tbaa !18
  %14 = getelementptr inbounds nuw i8, ptr %0, i64 104
  store ptr @sbr_hf_apply_noise_3, ptr %14, align 8, !tbaa !18
  ret void
}